; ModuleID = '4/21.c'
source_filename = "4/21.c"
target datalayout = "e-m:e-p270:32:32-p271:32:32-p272:64:64-i64:64-f80:128-n8:16:32:64-S128"
target triple = "x86_64-pc-linux-gnu"

@.str = private unnamed_addr constant [6 x i8] c"%d %d\00", align 1
@.str.1 = private unnamed_addr constant [3 x i8] c"%d\00", align 1
@.str.2 = private unnamed_addr constant [4 x i8] c"%d\0A\00", align 1

; Function Attrs: noinline nounwind uwtable
define dso_local void @main() #0 {
  %1 = alloca i32, align 4
  %2 = alloca i32, align 4
  %3 = alloca [100 x i32]*, align 8
  %4 = alloca i32, align 4
  %5 = alloca i32, align 4
  %6 = alloca i32, align 4
  %7 = call i32 (i8*, ...) @__isoc99_scanf(i8* getelementptr inbounds ([6 x i8], [6 x i8]* @.str, i64 0, i64 0), i32* %1, i32* %2)
  %8 = load i32, i32* %1, align 4
  %9 = load i32, i32* %2, align 4
  %10 = mul nsw i32 %8, %9
  %11 = sext i32 %10 to i64
  %12 = mul i64 %11, 4
  %13 = call noalias i8* @malloc(i64 %12) #3
  %14 = bitcast i8* %13 to [100 x i32]*
  store [100 x i32]* %14, [100 x i32]** %3, align 8
  store i32 0, i32* %4, align 4
  br label %15

15:                                               ; preds = %38, %0
  %16 = load i32, i32* %4, align 4
  %17 = load i32, i32* %1, align 4
  %18 = icmp slt i32 %16, %17
  br i1 %18, label %19, label %41

19:                                               ; preds = %15
  store i32 0, i32* %5, align 4
  br label %20

20:                                               ; preds = %34, %19
  %21 = load i32, i32* %5, align 4
  %22 = load i32, i32* %2, align 4
  %23 = icmp slt i32 %21, %22
  br i1 %23, label %24, label %37

24:                                               ; preds = %20
  %25 = load [100 x i32]*, [100 x i32]** %3, align 8
  %26 = load i32, i32* %4, align 4
  %27 = sext i32 %26 to i64
  %28 = getelementptr inbounds [100 x i32], [100 x i32]* %25, i64 %27
  %29 = getelementptr inbounds [100 x i32], [100 x i32]* %28, i64 0, i64 0
  %30 = load i32, i32* %5, align 4
  %31 = sext i32 %30 to i64
  %32 = getelementptr inbounds i32, i32* %29, i64 %31
  %33 = call i32 (i8*, ...) @__isoc99_scanf(i8* getelementptr inbounds ([3 x i8], [3 x i8]* @.str.1, i64 0, i64 0), i32* %32)
  br label %34

34:                                               ; preds = %24
  %35 = load i32, i32* %5, align 4
  %36 = add nsw i32 %35, 1
  store i32 %36, i32* %5, align 4
  br label %20

37:                                               ; preds = %20
  br label %38

38:                                               ; preds = %37
  %39 = load i32, i32* %4, align 4
  %40 = add nsw i32 %39, 1
  store i32 %40, i32* %4, align 4
  br label %15

41:                                               ; preds = %15
  store i32 0, i32* %6, align 4
  br label %42

42:                                               ; preds = %74, %41
  %43 = load i32, i32* %6, align 4
  %44 = load i32, i32* %2, align 4
  %45 = icmp slt i32 %43, %44
  br i1 %45, label %46, label %77

46:                                               ; preds = %42
  store i32 0, i32* %4, align 4
  %47 = load i32, i32* %6, align 4
  store i32 %47, i32* %5, align 4
  br label %48

48:                                               ; preds = %68, %46
  %49 = load i32, i32* %4, align 4
  %50 = load i32, i32* %1, align 4
  %51 = icmp slt i32 %49, %50
  br i1 %51, label %52, label %55

52:                                               ; preds = %48
  %53 = load i32, i32* %5, align 4
  %54 = icmp sge i32 %53, 0
  br label %55

55:                                               ; preds = %52, %48
  %56 = phi i1 [ false, %48 ], [ %54, %52 ]
  br i1 %56, label %57, label %73

57:                                               ; preds = %55
  %58 = load [100 x i32]*, [100 x i32]** %3, align 8
  %59 = load i32, i32* %4, align 4
  %60 = sext i32 %59 to i64
  %61 = getelementptr inbounds [100 x i32], [100 x i32]* %58, i64 %60
  %62 = getelementptr inbounds [100 x i32], [100 x i32]* %61, i64 0, i64 0
  %63 = load i32, i32* %5, align 4
  %64 = sext i32 %63 to i64
  %65 = getelementptr inbounds i32, i32* %62, i64 %64
  %66 = load i32, i32* %65, align 4
  %67 = call i32 (i8*, ...) @printf(i8* getelementptr inbounds ([4 x i8], [4 x i8]* @.str.2, i64 0, i64 0), i32 %66)
  br label %68

68:                                               ; preds = %57
  %69 = load i32, i32* %4, align 4
  %70 = add nsw i32 %69, 1
  store i32 %70, i32* %4, align 4
  %71 = load i32, i32* %5, align 4
  %72 = add nsw i32 %71, -1
  store i32 %72, i32* %5, align 4
  br label %48

73:                                               ; preds = %55
  br label %74

74:                                               ; preds = %73
  %75 = load i32, i32* %6, align 4
  %76 = add nsw i32 %75, 1
  store i32 %76, i32* %6, align 4
  br label %42

77:                                               ; preds = %42
  store i32 1, i32* %6, align 4
  br label %78

78:                                               ; preds = %112, %77
  %79 = load i32, i32* %6, align 4
  %80 = load i32, i32* %1, align 4
  %81 = icmp slt i32 %79, %80
  br i1 %81, label %82, label %115

82:                                               ; preds = %78
  %83 = load i32, i32* %6, align 4
  store i32 %83, i32* %4, align 4
  %84 = load i32, i32* %2, align 4
  %85 = sub nsw i32 %84, 1
  store i32 %85, i32* %5, align 4
  br label %86

86:                                               ; preds = %106, %82
  %87 = load i32, i32* %4, align 4
  %88 = load i32, i32* %1, align 4
  %89 = icmp slt i32 %87, %88
  br i1 %89, label %90, label %93

90:                                               ; preds = %86
  %91 = load i32, i32* %5, align 4
  %92 = icmp sge i32 %91, 0
  br label %93

93:                                               ; preds = %90, %86
  %94 = phi i1 [ false, %86 ], [ %92, %90 ]
  br i1 %94, label %95, label %111

95:                                               ; preds = %93
  %96 = load [100 x i32]*, [100 x i32]** %3, align 8
  %97 = load i32, i32* %4, align 4
  %98 = sext i32 %97 to i64
  %99 = getelementptr inbounds [100 x i32], [100 x i32]* %96, i64 %98
  %100 = getelementptr inbounds [100 x i32], [100 x i32]* %99, i64 0, i64 0
  %101 = load i32, i32* %5, align 4
  %102 = sext i32 %101 to i64
  %103 = getelementptr inbounds i32, i32* %100, i64 %102
  %104 = load i32, i32* %103, align 4
  %105 = call i32 (i8*, ...) @printf(i8* getelementptr inbounds ([4 x i8], [4 x i8]* @.str.2, i64 0, i64 0), i32 %104)
  br label %106

106:                                              ; preds = %95
  %107 = load i32, i32* %4, align 4
  %108 = add nsw i32 %107, 1
  store i32 %108, i32* %4, align 4
  %109 = load i32, i32* %5, align 4
  %110 = add nsw i32 %109, -1
  store i32 %110, i32* %5, align 4
  br label %86

111:                                              ; preds = %93
  br label %112

112:                                              ; preds = %111
  %113 = load i32, i32* %6, align 4
  %114 = add nsw i32 %113, 1
  store i32 %114, i32* %6, align 4
  br label %78

115:                                              ; preds = %78
  ret void
}

declare dso_local i32 @__isoc99_scanf(i8*, ...) #1

; Function Attrs: nounwind
declare dso_local noalias i8* @malloc(i64) #2

declare dso_local i32 @printf(i8*, ...) #1


!llvm.module.flags = !{!0}
!llvm.ident = !{!1}

!0 = !{i32 1, !"wchar_size", i32 4}
!1 = !{!"clang version 10.0.0-4ubuntu1 "}
